; ModuleID = '20/1110.c'
source_filename = "20/1110.c"
target datalayout = "e-m:e-p270:32:32-p271:32:32-p272:64:64-i64:64-f80:128-n8:16:32:64-S128"
target triple = "x86_64-pc-linux-gnu"

@.str = private unnamed_addr constant [5 x i8] c"%s%s\00", align 1
@.str.1 = private unnamed_addr constant [6 x i8] c"%s%s\0A\00", align 1

; Function Attrs: noinline nounwind uwtable
define dso_local i32 @main() #0 {
  %1 = alloca i32, align 4
  %2 = alloca [14 x i8], align 1
  %3 = alloca [4 x i8], align 1
  %4 = alloca i8, align 1
  %5 = alloca [14 x i8], align 1
  %6 = alloca i32, align 4
  %7 = alloca i32, align 4
  %8 = alloca i32, align 4
  store i32 0, i32* %1, align 4
  br label %9

9:                                                ; preds = %87, %0
  %10 = getelementptr inbounds [14 x i8], [14 x i8]* %2, i64 0, i64 0
  %11 = getelementptr inbounds [4 x i8], [4 x i8]* %3, i64 0, i64 0
  %12 = call i32 (i8*, ...) @__isoc99_scanf(i8* getelementptr inbounds ([5 x i8], [5 x i8]* @.str, i64 0, i64 0), i8* %10, i8* %11)
  %13 = icmp ne i32 %12, -1
  br i1 %13, label %14, label %96

14:                                               ; preds = %9
  store i32 1, i32* %6, align 4
  %15 = getelementptr inbounds [14 x i8], [14 x i8]* %2, i64 0, i64 0
  %16 = load i8, i8* %15, align 1
  store i8 %16, i8* %4, align 1
  store i32 0, i32* %7, align 4
  br label %17

17:                                               ; preds = %40, %14
  %18 = load i32, i32* %6, align 4
  %19 = sext i32 %18 to i64
  %20 = getelementptr inbounds [14 x i8], [14 x i8]* %2, i64 0, i64 %19
  %21 = load i8, i8* %20, align 1
  %22 = sext i8 %21 to i32
  %23 = icmp ne i32 %22, 0
  br i1 %23, label %24, label %43

24:                                               ; preds = %17
  %25 = load i32, i32* %6, align 4
  %26 = sext i32 %25 to i64
  %27 = getelementptr inbounds [14 x i8], [14 x i8]* %2, i64 0, i64 %26
  %28 = load i8, i8* %27, align 1
  %29 = sext i8 %28 to i32
  %30 = load i8, i8* %4, align 1
  %31 = sext i8 %30 to i32
  %32 = icmp sgt i32 %29, %31
  br i1 %32, label %33, label %39

33:                                               ; preds = %24
  %34 = load i32, i32* %6, align 4
  store i32 %34, i32* %7, align 4
  %35 = load i32, i32* %6, align 4
  %36 = sext i32 %35 to i64
  %37 = getelementptr inbounds [14 x i8], [14 x i8]* %2, i64 0, i64 %36
  %38 = load i8, i8* %37, align 1
  store i8 %38, i8* %4, align 1
  br label %39

39:                                               ; preds = %33, %24
  br label %40

40:                                               ; preds = %39
  %41 = load i32, i32* %6, align 4
  %42 = add nsw i32 %41, 1
  store i32 %42, i32* %6, align 4
  br label %17

43:                                               ; preds = %17
  %44 = load i32, i32* %7, align 4
  %45 = add nsw i32 %44, 1
  store i32 %45, i32* %6, align 4
  store i32 0, i32* %8, align 4
  br label %46

46:                                               ; preds = %61, %43
  %47 = load i32, i32* %6, align 4
  %48 = sext i32 %47 to i64
  %49 = getelementptr inbounds [14 x i8], [14 x i8]* %2, i64 0, i64 %48
  %50 = load i8, i8* %49, align 1
  %51 = sext i8 %50 to i32
  %52 = icmp ne i32 %51, 0
  br i1 %52, label %53, label %66

53:                                               ; preds = %46
  %54 = load i32, i32* %6, align 4
  %55 = sext i32 %54 to i64
  %56 = getelementptr inbounds [14 x i8], [14 x i8]* %2, i64 0, i64 %55
  %57 = load i8, i8* %56, align 1
  %58 = load i32, i32* %8, align 4
  %59 = sext i32 %58 to i64
  %60 = getelementptr inbounds [14 x i8], [14 x i8]* %5, i64 0, i64 %59
  store i8 %57, i8* %60, align 1
  br label %61

61:                                               ; preds = %53
  %62 = load i32, i32* %6, align 4
  %63 = add nsw i32 %62, 1
  store i32 %63, i32* %6, align 4
  %64 = load i32, i32* %8, align 4
  %65 = add nsw i32 %64, 1
  store i32 %65, i32* %8, align 4
  br label %46

66:                                               ; preds = %46
  %67 = load i32, i32* %8, align 4
  %68 = sext i32 %67 to i64
  %69 = getelementptr inbounds [14 x i8], [14 x i8]* %5, i64 0, i64 %68
  store i8 0, i8* %69, align 1
  store i32 1, i32* %6, align 4
  br label %70

70:                                               ; preds = %84, %66
  %71 = load i32, i32* %6, align 4
  %72 = icmp sle i32 %71, 3
  br i1 %72, label %73, label %87

73:                                               ; preds = %70
  %74 = load i32, i32* %6, align 4
  %75 = sub nsw i32 %74, 1
  %76 = sext i32 %75 to i64
  %77 = getelementptr inbounds [4 x i8], [4 x i8]* %3, i64 0, i64 %76
  %78 = load i8, i8* %77, align 1
  %79 = load i32, i32* %7, align 4
  %80 = load i32, i32* %6, align 4
  %81 = add nsw i32 %79, %80
  %82 = sext i32 %81 to i64
  %83 = getelementptr inbounds [14 x i8], [14 x i8]* %2, i64 0, i64 %82
  store i8 %78, i8* %83, align 1
  br label %84

84:                                               ; preds = %73
  %85 = load i32, i32* %6, align 4
  %86 = add nsw i32 %85, 1
  store i32 %86, i32* %6, align 4
  br label %70

87:                                               ; preds = %70
  %88 = load i32, i32* %7, align 4
  %89 = load i32, i32* %6, align 4
  %90 = add nsw i32 %88, %89
  %91 = sext i32 %90 to i64
  %92 = getelementptr inbounds [14 x i8], [14 x i8]* %2, i64 0, i64 %91
  store i8 0, i8* %92, align 1
  %93 = getelementptr inbounds [14 x i8], [14 x i8]* %2, i64 0, i64 0
  %94 = getelementptr inbounds [14 x i8], [14 x i8]* %5, i64 0, i64 0
  %95 = call i32 (i8*, ...) @printf(i8* getelementptr inbounds ([6 x i8], [6 x i8]* @.str.1, i64 0, i64 0), i8* %93, i8* %94)
  br label %9

96:                                               ; preds = %9
  ret i32 0
}

declare dso_local i32 @__isoc99_scanf(i8*, ...) #1

declare dso_local i32 @printf(i8*, ...) #1


!llvm.module.flags = !{!0}
!llvm.ident = !{!1}

!0 = !{i32 1, !"wchar_size", i32 4}
!1 = !{!"clang version 10.0.0-4ubuntu1 "}
